target datalayout = "e-m:e-p270:32:32-p271:32:32-p272:64:64-i64:64-i128:128-f80:128-n8:16:32:64-S128"
target triple = "x86_64-pc-linux-gnu"

%struct.sqlite3_pcache_methods2 = type { i32, ptr, ptr, ptr, ptr, ptr, ptr, ptr, ptr, ptr, ptr, ptr, ptr }

@pcacheBase = internal global %struct.sqlite3_pcache_methods2 zeroinitializer, align 8
@pcachetraceOut = internal global ptr null, align 8
@.str.147 = private unnamed_addr constant [33 x i8] c"PCACHETRACE: xCachesize(%p, %d)\0A\00", align 1

; Function Attrs: nounwind uwtable
define internal void @pcachetraceCachesize(ptr noundef %0, i32 noundef %1) #0 {
  %3 = alloca ptr, align 8
  %4 = alloca i32, align 4
  store ptr %0, ptr %3, align 8, !tbaa !549
  store i32 %1, ptr %4, align 4, !tbaa !3
  %5 = load ptr, ptr @pcachetraceOut, align 8, !tbaa !12
  %6 = icmp ne ptr %5, null
  br i1 %6, label %7, label %12

7:                                                ; preds = %2
  %8 = load ptr, ptr @pcachetraceOut, align 8, !tbaa !12
  %9 = load ptr, ptr %3, align 8, !tbaa !549
  %10 = load i32, ptr %4, align 4, !tbaa !3
  %11 = call i32 (ptr, ptr, ...) @fprintf(ptr noundef %8, ptr noundef @.str.147, ptr noundef %9, i32 noundef %10) #14
  br label %12

12:                                               ; preds = %7, %2
  %13 = load ptr, ptr getelementptr inbounds nuw (%struct.sqlite3_pcache_methods2, ptr @pcacheBase, i32 0, i32 5), align 8, !tbaa !551
  %14 = load ptr, ptr %3, align 8, !tbaa !549
  %15 = load i32, ptr %4, align 4, !tbaa !3
  call void %13(ptr noundef %14, i32 noundef %15)
  ret void
}