; Function Attrs: nounwind uwtable
define internal void @pcachetraceCachesize(ptr noundef %0, i32 noundef %1) #2 {
  %3 = load ptr, ptr @pcachetraceOut, align 8, !tbaa !14
  %.not = icmp eq ptr %3, null
  br i1 %.not, label %6, label %4

4:                                                ; preds = %2
  %5 = tail call i32 (ptr, ptr, ...) @fprintf(ptr noundef nonnull %3, ptr noundef nonnull @.str.147, ptr noundef %0, i32 noundef %1) #43
  br label %6

6:                                                ; preds = %4, %2
  %7 = load ptr, ptr getelementptr inbounds nuw (i8, ptr @pcacheBase, i64 40), align 8, !tbaa !682
  tail call void %7(ptr noundef %0, i32 noundef %1) #43
  ret void
}